target datalayout = "e-m:e-p270:32:32-p271:32:32-p272:64:64-i64:64-i128:128-f80:128-n8:16:32:64-S128"
target triple = "x86_64-pc-linux-gnu"

%struct.expert_field = type { i32, i32 }

@ei_gsm_a_bssmap_extraneous_data = internal global %struct.expert_field zeroinitializer, align 4

; Function Attrs: null_pointer_is_valid sspstrong uwtable
define internal void @bssmap_perf_loc_res(ptr noundef %0, ptr noundef %1, ptr noundef %2, i32 noundef %3, i32 noundef %4) #1 {
  %6 = alloca ptr, align 8
  %7 = alloca ptr, align 8
  %8 = alloca ptr, align 8
  %9 = alloca i32, align 4
  %10 = alloca i32, align 4
  %11 = alloca i32, align 4
  %12 = alloca i32, align 4
  %13 = alloca i32, align 4
  %14 = alloca i32, align 4
  store ptr %0, ptr %6, align 8
  store ptr %1, ptr %7, align 8
  store ptr %2, ptr %8, align 8
  store i32 %3, ptr %9, align 4
  store i32 %4, ptr %10, align 4
  call void @llvm.lifetime.start.p0(i64 4, ptr %11) #5
  call void @llvm.lifetime.start.p0(i64 4, ptr %12) #5
  call void @llvm.lifetime.start.p0(i64 4, ptr %13) #5
  %15 = load i32, ptr %9, align 4
  store i32 %15, ptr %11, align 4
  %16 = load i32, ptr %10, align 4
  store i32 %16, ptr %13, align 4
  %17 = load i32, ptr %13, align 4
  %18 = icmp sle i32 %17, 0
  br i1 %18, label %19, label %20

19:                                               ; preds = %5
  store i32 1, ptr %14, align 4
  br label %152

20:                                               ; preds = %5
  %21 = load ptr, ptr %6, align 8
  %22 = load ptr, ptr %7, align 8
  %23 = load ptr, ptr %8, align 8
  %24 = load i32, ptr %11, align 4
  %25 = load i32, ptr %13, align 4
  %26 = call zeroext i16 @elem_tlv(ptr noundef %21, ptr noundef %22, ptr noundef %23, i8 noundef zeroext 69, i32 noundef 0, i32 noundef 69, i32 noundef %24, i32 noundef %25, ptr noundef null)
  %27 = zext i16 %26 to i32
  store i32 %27, ptr %12, align 4
  %28 = icmp ugt i32 %27, 0
  br i1 %28, label %29, label %36

29:                                               ; preds = %20
  %30 = load i32, ptr %12, align 4
  %31 = load i32, ptr %11, align 4
  %32 = add i32 %31, %30
  store i32 %32, ptr %11, align 4
  %33 = load i32, ptr %12, align 4
  %34 = load i32, ptr %13, align 4
  %35 = sub i32 %34, %33
  store i32 %35, ptr %13, align 4
  br label %36

36:                                               ; preds = %29, %20
  %37 = load i32, ptr %13, align 4
  %38 = icmp sle i32 %37, 0
  br i1 %38, label %39, label %40

39:                                               ; preds = %36
  store i32 1, ptr %14, align 4
  br label %152

40:                                               ; preds = %36
  %41 = load ptr, ptr %6, align 8
  %42 = load ptr, ptr %7, align 8
  %43 = load ptr, ptr %8, align 8
  %44 = load i32, ptr %11, align 4
  %45 = load i32, ptr %13, align 4
  %46 = call zeroext i16 @elem_tlv(ptr noundef %41, ptr noundef %42, ptr noundef %43, i8 noundef zeroext 70, i32 noundef 0, i32 noundef 70, i32 noundef %44, i32 noundef %45, ptr noundef null)
  %47 = zext i16 %46 to i32
  store i32 %47, ptr %12, align 4
  %48 = icmp ugt i32 %47, 0
  br i1 %48, label %49, label %56

49:                                               ; preds = %40
  %50 = load i32, ptr %12, align 4
  %51 = load i32, ptr %11, align 4
  %52 = add i32 %51, %50
  store i32 %52, ptr %11, align 4
  %53 = load i32, ptr %12, align 4
  %54 = load i32, ptr %13, align 4
  %55 = sub i32 %54, %53
  store i32 %55, ptr %13, align 4
  br label %56

56:                                               ; preds = %49, %40
  %57 = load i32, ptr %13, align 4
  %58 = icmp sle i32 %57, 0
  br i1 %58, label %59, label %60

59:                                               ; preds = %56
  store i32 1, ptr %14, align 4
  br label %152

60:                                               ; preds = %56
  %61 = load ptr, ptr %6, align 8
  %62 = load ptr, ptr %7, align 8
  %63 = load ptr, ptr %8, align 8
  %64 = load i32, ptr %11, align 4
  %65 = load i32, ptr %13, align 4
  %66 = call zeroext i16 @elem_tlv(ptr noundef %61, ptr noundef %62, ptr noundef %63, i8 noundef zeroext 76, i32 noundef 8, i32 noundef 14, i32 noundef %64, i32 noundef %65, ptr noundef null)
  %67 = zext i16 %66 to i32
  store i32 %67, ptr %12, align 4
  %68 = icmp ugt i32 %67, 0
  br i1 %68, label %69, label %76

69:                                               ; preds = %60
  %70 = load i32, ptr %12, align 4
  %71 = load i32, ptr %11, align 4
  %72 = add i32 %71, %70
  store i32 %72, ptr %11, align 4
  %73 = load i32, ptr %12, align 4
  %74 = load i32, ptr %13, align 4
  %75 = sub i32 %74, %73
  store i32 %75, ptr %13, align 4
  br label %76

76:                                               ; preds = %69, %60
  %77 = load i32, ptr %13, align 4
  %78 = icmp sle i32 %77, 0
  br i1 %78, label %79, label %80

79:                                               ; preds = %76
  store i32 1, ptr %14, align 4
  br label %152

80:                                               ; preds = %76
  %81 = load ptr, ptr %6, align 8
  %82 = load ptr, ptr %7, align 8
  %83 = load ptr, ptr %8, align 8
  %84 = load i32, ptr %11, align 4
  %85 = load i32, ptr %13, align 4
  %86 = call zeroext i16 @elem_tlv(ptr noundef %81, ptr noundef %82, ptr noundef %83, i8 noundef zeroext 71, i32 noundef 8, i32 noundef 8, i32 noundef %84, i32 noundef %85, ptr noundef null)
  %87 = zext i16 %86 to i32
  store i32 %87, ptr %12, align 4
  %88 = icmp ugt i32 %87, 0
  br i1 %88, label %89, label %96

89:                                               ; preds = %80
  %90 = load i32, ptr %12, align 4
  %91 = load i32, ptr %11, align 4
  %92 = add i32 %91, %90
  store i32 %92, ptr %11, align 4
  %93 = load i32, ptr %12, align 4
  %94 = load i32, ptr %13, align 4
  %95 = sub i32 %94, %93
  store i32 %95, ptr %13, align 4
  br label %96

96:                                               ; preds = %89, %80
  %97 = load i32, ptr %13, align 4
  %98 = icmp sle i32 %97, 0
  br i1 %98, label %99, label %100

99:                                               ; preds = %96
  store i32 1, ptr %14, align 4
  br label %152

100:                                              ; preds = %96
  %101 = load ptr, ptr %6, align 8
  %102 = load ptr, ptr %7, align 8
  %103 = load ptr, ptr %8, align 8
  %104 = load i32, ptr %11, align 4
  %105 = load i32, ptr %13, align 4
  %106 = call zeroext i16 @elem_tlv(ptr noundef %101, ptr noundef %102, ptr noundef %103, i8 noundef zeroext 85, i32 noundef 0, i32 noundef 85, i32 noundef %104, i32 noundef %105, ptr noundef null)
  %107 = zext i16 %106 to i32
  store i32 %107, ptr %12, align 4
  %108 = icmp ugt i32 %107, 0
  br i1 %108, label %109, label %116

109:                                              ; preds = %100
  %110 = load i32, ptr %12, align 4
  %111 = load i32, ptr %11, align 4
  %112 = add i32 %111, %110
  store i32 %112, ptr %11, align 4
  %113 = load i32, ptr %12, align 4
  %114 = load i32, ptr %13, align 4
  %115 = sub i32 %114, %113
  store i32 %115, ptr %13, align 4
  br label %116

116:                                              ; preds = %109, %100
  %117 = load i32, ptr %13, align 4
  %118 = icmp sle i32 %117, 0
  br i1 %118, label %119, label %120

119:                                              ; preds = %116
  store i32 1, ptr %14, align 4
  br label %152

120:                                              ; preds = %116
  %121 = load ptr, ptr %6, align 8
  %122 = load ptr, ptr %7, align 8
  %123 = load ptr, ptr %8, align 8
  %124 = load i32, ptr %11, align 4
  %125 = load i32, ptr %13, align 4
  %126 = call zeroext i16 @elem_tlv(ptr noundef %121, ptr noundef %122, ptr noundef %123, i8 noundef zeroext 118, i32 noundef 0, i32 noundef 118, i32 noundef %124, i32 noundef %125, ptr noundef null)
  %127 = zext i16 %126 to i32
  store i32 %127, ptr %12, align 4
  %128 = icmp ugt i32 %127, 0
  br i1 %128, label %129, label %136

129:                                              ; preds = %120
  %130 = load i32, ptr %12, align 4
  %131 = load i32, ptr %11, align 4
  %132 = add i32 %131, %130
  store i32 %132, ptr %11, align 4
  %133 = load i32, ptr %12, align 4
  %134 = load i32, ptr %13, align 4
  %135 = sub i32 %134, %133
  store i32 %135, ptr %13, align 4
  br label %136

136:                                              ; preds = %129, %120
  %137 = load i32, ptr %13, align 4
  %138 = icmp ugt i32 %137, 0
  br i1 %138, label %139, label %151

139:                                              ; preds = %136
  %140 = load ptr, ptr %7, align 8
  %141 = load ptr, ptr %8, align 8
  %142 = load ptr, ptr %6, align 8
  %143 = load i32, ptr %11, align 4
  %144 = load i32, ptr %13, align 4
  %145 = sub i32 %144, 0
  %146 = call ptr @proto_tree_add_expert(ptr noundef %140, ptr noundef %141, ptr noundef @ei_gsm_a_bssmap_extraneous_data, ptr noundef %142, i32 noundef %143, i32 noundef %145)
  %147 = load i32, ptr %13, align 4
  %148 = sub i32 %147, 0
  %149 = load i32, ptr %11, align 4
  %150 = add i32 %149, %148
  store i32 %150, ptr %11, align 4
  br label %151

151:                                              ; preds = %139, %136
  store i32 0, ptr %14, align 4
  br label %152

152:                                              ; preds = %151, %119, %99, %79, %59, %39, %19
  call void @llvm.lifetime.end.p0(i64 4, ptr %13) #5
  call void @llvm.lifetime.end.p0(i64 4, ptr %12) #5
  call void @llvm.lifetime.end.p0(i64 4, ptr %11) #5
  %153 = load i32, ptr %14, align 4
  switch i32 %153, label %155 [
    i32 0, label %154
    i32 1, label %154
  ]

154:                                              ; preds = %152, %152
  ret void

155:                                              ; preds = %152
  unreachable
}