; Function Attrs: null_pointer_is_valid sspstrong uwtable
define internal void @bssmap_perf_loc_res(ptr noundef %0, ptr noundef %1, ptr noundef %2, i32 noundef %3, i32 noundef %4) #1 {
  %6 = icmp slt i32 %4, 1
  br i1 %6, label %44, label %7

7:                                                ; preds = %5
  %8 = tail call zeroext i16 @elem_tlv(ptr noundef %0, ptr noundef %1, ptr noundef %2, i8 noundef zeroext 69, i32 noundef 0, i32 noundef 69, i32 noundef %3, i32 noundef %4, ptr noundef null)
  %9 = zext i16 %8 to i32
  %10 = sub nsw i32 %4, %9
  %11 = icmp slt i32 %10, 1
  br i1 %11, label %44, label %12

12:                                               ; preds = %7
  %13 = add i32 %3, %9
  %14 = tail call zeroext i16 @elem_tlv(ptr noundef %0, ptr noundef %1, ptr noundef %2, i8 noundef zeroext 70, i32 noundef 0, i32 noundef 70, i32 noundef %13, i32 noundef %10, ptr noundef null)
  %15 = zext i16 %14 to i32
  %16 = sub nsw i32 %10, %15
  %17 = icmp slt i32 %16, 1
  br i1 %17, label %44, label %18

18:                                               ; preds = %12
  %19 = add i32 %13, %15
  %20 = tail call zeroext i16 @elem_tlv(ptr noundef %0, ptr noundef %1, ptr noundef %2, i8 noundef zeroext 76, i32 noundef 8, i32 noundef 14, i32 noundef %19, i32 noundef %16, ptr noundef null)
  %21 = zext i16 %20 to i32
  %22 = sub nsw i32 %16, %21
  %23 = icmp slt i32 %22, 1
  br i1 %23, label %44, label %24

24:                                               ; preds = %18
  %25 = add i32 %19, %21
  %26 = tail call zeroext i16 @elem_tlv(ptr noundef %0, ptr noundef %1, ptr noundef %2, i8 noundef zeroext 71, i32 noundef 8, i32 noundef 8, i32 noundef %25, i32 noundef %22, ptr noundef null)
  %27 = zext i16 %26 to i32
  %28 = sub nsw i32 %22, %27
  %29 = icmp slt i32 %28, 1
  br i1 %29, label %44, label %30

30:                                               ; preds = %24
  %31 = add i32 %25, %27
  %32 = tail call zeroext i16 @elem_tlv(ptr noundef %0, ptr noundef %1, ptr noundef %2, i8 noundef zeroext 85, i32 noundef 0, i32 noundef 85, i32 noundef %31, i32 noundef %28, ptr noundef null)
  %33 = zext i16 %32 to i32
  %34 = sub nsw i32 %28, %33
  %35 = icmp slt i32 %34, 1
  br i1 %35, label %44, label %36

36:                                               ; preds = %30
  %37 = add i32 %31, %33
  %38 = tail call zeroext i16 @elem_tlv(ptr noundef %0, ptr noundef %1, ptr noundef %2, i8 noundef zeroext 118, i32 noundef 0, i32 noundef 118, i32 noundef %37, i32 noundef %34, ptr noundef null)
  %39 = zext i16 %38 to i32
  %.not87 = icmp eq i32 %34, %39
  br i1 %.not87, label %44, label %40

40:                                               ; preds = %36
  %41 = sub nsw i32 %34, %39
  %42 = add i32 %37, %39
  %43 = tail call ptr @proto_tree_add_expert(ptr noundef %1, ptr noundef %2, ptr noundef nonnull @ei_gsm_a_bssmap_extraneous_data, ptr noundef %0, i32 noundef %42, i32 noundef %41)
  br label %44

44:                                               ; preds = %36, %40, %30, %24, %18, %12, %7, %5
  ret void
}